; ModuleID = 'source-C-CXX/30/1981.c'
source_filename = "source-C-CXX/30/1981.c"
target datalayout = "e-m:e-p270:32:32-p271:32:32-p272:64:64-i64:64-f80:128-n8:16:32:64-S128"
target triple = "x86_64-pc-linux-gnu"

%struct.student = type { [50 x i8], [20 x i8], i8, i32, [10 x i8], [50 x i8], %struct.student* }

@n = dso_local local_unnamed_addr global i32 0, align 4
@.str = private unnamed_addr constant [18 x i8] c"%s %s %c %d %s %s\00", align 1
@.str.1 = private unnamed_addr constant [3 x i8] c"%s\00", align 1
@.str.2 = private unnamed_addr constant [4 x i8] c"end\00", align 1
@.str.3 = private unnamed_addr constant [15 x i8] c"%s %c %d %s %s\00", align 1
@.str.4 = private unnamed_addr constant [19 x i8] c"%s %s %c %d %s %s\0A\00", align 1

; Function Attrs: nounwind sspstrong uwtable
define dso_local %struct.student* @Create() local_unnamed_addr #0 {
  store i32 0, i32* @n, align 4, !tbaa !5
  %1 = tail call noalias align 16 dereferenceable_or_null(100) i8* @malloc(i64 100) #7
  %2 = bitcast i8* %1 to %struct.student*
  %3 = getelementptr inbounds %struct.student, %struct.student* %2, i64 0, i32 0, i64 0
  %4 = getelementptr inbounds %struct.student, %struct.student* %2, i64 0, i32 1, i64 0
  %5 = getelementptr inbounds %struct.student, %struct.student* %2, i64 0, i32 2
  %6 = getelementptr inbounds %struct.student, %struct.student* %2, i64 0, i32 3
  %7 = getelementptr inbounds %struct.student, %struct.student* %2, i64 0, i32 4, i64 0
  %8 = getelementptr inbounds %struct.student, %struct.student* %2, i64 0, i32 5, i64 0
  %9 = tail call i32 (i8*, ...) @__isoc99_scanf(i8* getelementptr inbounds ([18 x i8], [18 x i8]* @.str, i64 0, i64 0), i8* %3, i8* nonnull %4, i8* nonnull %5, i32* nonnull %6, i8* nonnull %7, i8* nonnull %8)
  %10 = load i32, i32* @n, align 4, !tbaa !5
  %11 = add nsw i32 %10, 1
  store i32 %11, i32* @n, align 4, !tbaa !5
  %12 = icmp eq i32 %10, 0
  %13 = select i1 %12, %struct.student* null, %struct.student* %2
  %14 = select i1 %12, %struct.student* %2, %struct.student* null
  %15 = getelementptr inbounds %struct.student, %struct.student* %2, i64 0, i32 6
  store %struct.student* %13, %struct.student** %15, align 8
  %16 = tail call noalias align 16 dereferenceable_or_null(100) i8* @malloc(i64 100) #7
  %17 = bitcast i8* %16 to %struct.student*
  %18 = getelementptr inbounds %struct.student, %struct.student* %17, i64 0, i32 0, i64 0
  %19 = tail call i32 (i8*, ...) @__isoc99_scanf(i8* getelementptr inbounds ([3 x i8], [3 x i8]* @.str.1, i64 0, i64 0), i8* %18)
  %20 = tail call i32 @strcmp(i8* noundef nonnull dereferenceable(1) %18, i8* noundef nonnull dereferenceable(4) getelementptr inbounds ([4 x i8], [4 x i8]* @.str.2, i64 0, i64 0)) #8
  %21 = icmp eq i32 %20, 0
  br i1 %21, label %22, label %27

22:                                               ; preds = %27, %0
  %23 = phi %struct.student* [ %2, %0 ], [ %28, %27 ]
  %24 = phi %struct.student* [ %14, %0 ], [ %41, %27 ]
  %25 = phi i8* [ %16, %0 ], [ %43, %27 ]
  %26 = getelementptr inbounds %struct.student, %struct.student* %23, i64 0, i32 6
  store %struct.student* null, %struct.student** %26, align 8, !tbaa !9
  tail call void @free(i8* %25) #7
  ret %struct.student* %24

27:                                               ; preds = %0, %27
  %28 = phi %struct.student* [ %44, %27 ], [ %17, %0 ]
  %29 = phi %struct.student* [ %41, %27 ], [ %14, %0 ]
  %30 = phi %struct.student* [ %28, %27 ], [ %2, %0 ]
  %31 = getelementptr inbounds %struct.student, %struct.student* %28, i64 0, i32 1, i64 0
  %32 = getelementptr inbounds %struct.student, %struct.student* %28, i64 0, i32 2
  %33 = getelementptr inbounds %struct.student, %struct.student* %28, i64 0, i32 3
  %34 = getelementptr inbounds %struct.student, %struct.student* %28, i64 0, i32 4, i64 0
  %35 = getelementptr inbounds %struct.student, %struct.student* %28, i64 0, i32 5, i64 0
  %36 = tail call i32 (i8*, ...) @__isoc99_scanf(i8* getelementptr inbounds ([15 x i8], [15 x i8]* @.str.3, i64 0, i64 0), i8* nonnull %31, i8* nonnull %32, i32* nonnull %33, i8* nonnull %34, i8* nonnull %35)
  %37 = load i32, i32* @n, align 4, !tbaa !5
  %38 = add nsw i32 %37, 1
  store i32 %38, i32* @n, align 4, !tbaa !5
  %39 = icmp eq i32 %37, 0
  %40 = select i1 %39, %struct.student* null, %struct.student* %28
  %41 = select i1 %39, %struct.student* %28, %struct.student* %29
  %42 = getelementptr inbounds %struct.student, %struct.student* %30, i64 0, i32 6
  store %struct.student* %40, %struct.student** %42, align 8
  %43 = tail call noalias align 16 dereferenceable_or_null(100) i8* @malloc(i64 100) #7
  %44 = bitcast i8* %43 to %struct.student*
  %45 = getelementptr inbounds %struct.student, %struct.student* %44, i64 0, i32 0, i64 0
  %46 = tail call i32 (i8*, ...) @__isoc99_scanf(i8* getelementptr inbounds ([3 x i8], [3 x i8]* @.str.1, i64 0, i64 0), i8* %45)
  %47 = tail call i32 @strcmp(i8* noundef nonnull dereferenceable(1) %45, i8* noundef nonnull dereferenceable(4) getelementptr inbounds ([4 x i8], [4 x i8]* @.str.2, i64 0, i64 0)) #8
  %48 = icmp eq i32 %47, 0
  br i1 %48, label %22, label %27
}

; Function Attrs: inaccessiblememonly mustprogress nofree nounwind willreturn
declare noalias noundef align 16 i8* @malloc(i64 noundef) local_unnamed_addr #1

; Function Attrs: nofree nounwind
declare noundef i32 @__isoc99_scanf(i8* nocapture noundef readonly, ...) local_unnamed_addr #2

; Function Attrs: argmemonly mustprogress nofree nounwind readonly willreturn
declare i32 @strcmp(i8* nocapture, i8* nocapture) local_unnamed_addr #3

; Function Attrs: inaccessiblemem_or_argmemonly mustprogress nounwind willreturn
declare void @free(i8* nocapture noundef) local_unnamed_addr #4

; Function Attrs: nofree norecurse nosync nounwind sspstrong uwtable
define dso_local %struct.student* @Reverse(%struct.student* %0) local_unnamed_addr #5 {
  %2 = icmp eq %struct.student* %0, null
  br i1 %2, label %9, label %3

3:                                                ; preds = %1, %3
  %4 = phi %struct.student* [ %7, %3 ], [ %0, %1 ]
  %5 = phi %struct.student* [ %4, %3 ], [ null, %1 ]
  %6 = getelementptr inbounds %struct.student, %struct.student* %4, i64 0, i32 6
  %7 = load %struct.student*, %struct.student** %6, align 8, !tbaa !9
  store %struct.student* %5, %struct.student** %6, align 8, !tbaa !9
  %8 = icmp eq %struct.student* %7, null
  br i1 %8, label %9, label %3, !llvm.loop !12

9:                                                ; preds = %3, %1
  %10 = phi %struct.student* [ null, %1 ], [ %4, %3 ]
  ret %struct.student* %10
}

; Function Attrs: nofree nounwind sspstrong uwtable
define dso_local void @Print(%struct.student* %0) local_unnamed_addr #6 {
  %2 = icmp eq %struct.student* %0, null
  br i1 %2, label %18, label %3

3:                                                ; preds = %1, %3
  %4 = phi %struct.student* [ %16, %3 ], [ %0, %1 ]
  %5 = getelementptr inbounds %struct.student, %struct.student* %4, i64 0, i32 0, i64 0
  %6 = getelementptr inbounds %struct.student, %struct.student* %4, i64 0, i32 1, i64 0
  %7 = getelementptr inbounds %struct.student, %struct.student* %4, i64 0, i32 2
  %8 = load i8, i8* %7, align 2, !tbaa !14
  %9 = sext i8 %8 to i32
  %10 = getelementptr inbounds %struct.student, %struct.student* %4, i64 0, i32 3
  %11 = load i32, i32* %10, align 8, !tbaa !15
  %12 = getelementptr inbounds %struct.student, %struct.student* %4, i64 0, i32 4, i64 0
  %13 = getelementptr inbounds %struct.student, %struct.student* %4, i64 0, i32 5, i64 0
  %14 = tail call i32 (i8*, ...) @printf(i8* nonnull dereferenceable(1) getelementptr inbounds ([19 x i8], [19 x i8]* @.str.4, i64 0, i64 0), i8* %5, i8* nonnull %6, i32 %9, i32 %11, i8* nonnull %12, i8* nonnull %13)
  %15 = getelementptr inbounds %struct.student, %struct.student* %4, i64 0, i32 6
  %16 = load %struct.student*, %struct.student** %15, align 8, !tbaa !9
  %17 = icmp eq %struct.student* %16, null
  br i1 %17, label %18, label %3, !llvm.loop !16

18:                                               ; preds = %3, %1
  ret void
}

; Function Attrs: nofree nounwind
declare noundef i32 @printf(i8* nocapture noundef readonly, ...) local_unnamed_addr #2

; Function Attrs: nounwind sspstrong uwtable
define dso_local i32 @main() local_unnamed_addr #0 {
  %1 = tail call %struct.student* @Create()
  %2 = icmp eq %struct.student* %1, null
  br i1 %2, label %24, label %3

3:                                                ; preds = %0, %3
  %4 = phi %struct.student* [ %7, %3 ], [ %1, %0 ]
  %5 = phi %struct.student* [ %4, %3 ], [ null, %0 ]
  %6 = getelementptr inbounds %struct.student, %struct.student* %4, i64 0, i32 6
  %7 = load %struct.student*, %struct.student** %6, align 8, !tbaa !9
  store %struct.student* %5, %struct.student** %6, align 8, !tbaa !9
  %8 = icmp eq %struct.student* %7, null
  br i1 %8, label %9, label %3, !llvm.loop !12

9:                                                ; preds = %3, %9
  %10 = phi %struct.student* [ %22, %9 ], [ %4, %3 ]
  %11 = getelementptr inbounds %struct.student, %struct.student* %10, i64 0, i32 0, i64 0
  %12 = getelementptr inbounds %struct.student, %struct.student* %10, i64 0, i32 1, i64 0
  %13 = getelementptr inbounds %struct.student, %struct.student* %10, i64 0, i32 2
  %14 = load i8, i8* %13, align 2, !tbaa !14
  %15 = sext i8 %14 to i32
  %16 = getelementptr inbounds %struct.student, %struct.student* %10, i64 0, i32 3
  %17 = load i32, i32* %16, align 8, !tbaa !15
  %18 = getelementptr inbounds %struct.student, %struct.student* %10, i64 0, i32 4, i64 0
  %19 = getelementptr inbounds %struct.student, %struct.student* %10, i64 0, i32 5, i64 0
  %20 = tail call i32 (i8*, ...) @printf(i8* nonnull dereferenceable(1) getelementptr inbounds ([19 x i8], [19 x i8]* @.str.4, i64 0, i64 0), i8* %11, i8* nonnull %12, i32 %15, i32 %17, i8* nonnull %18, i8* nonnull %19) #7
  %21 = getelementptr inbounds %struct.student, %struct.student* %10, i64 0, i32 6
  %22 = load %struct.student*, %struct.student** %21, align 8, !tbaa !9
  %23 = icmp eq %struct.student* %22, null
  br i1 %23, label %24, label %9, !llvm.loop !16

24:                                               ; preds = %9, %0
  ret i32 0
}


!llvm.module.flags = !{!0, !1, !2, !3}
!llvm.ident = !{!4}

!0 = !{i32 1, !"wchar_size", i32 4}
!1 = !{i32 7, !"PIC Level", i32 2}
!2 = !{i32 7, !"PIE Level", i32 2}
!3 = !{i32 7, !"uwtable", i32 1}
!4 = !{!"clang version 13.0.0"}
!5 = !{!6, !6, i64 0}
!6 = !{!"int", !7, i64 0}
!7 = !{!"omnipotent char", !8, i64 0}
!8 = !{!"Simple C/C++ TBAA"}
!9 = !{!10, !11, i64 136}
!10 = !{!"student", !7, i64 0, !7, i64 50, !7, i64 70, !6, i64 72, !7, i64 76, !7, i64 86, !11, i64 136}
!11 = !{!"any pointer", !7, i64 0}
!12 = distinct !{!12, !13}
!13 = !{!"llvm.loop.mustprogress"}
!14 = !{!10, !7, i64 70}
!15 = !{!10, !6, i64 72}
!16 = distinct !{!16, !13}
